target datalayout = "e-m:e-p270:32:32-p271:32:32-p272:64:64-i64:64-i128:128-f80:128-n8:16:32:64-S128"
target triple = "x86_64-pc-linux-gnu"

%struct.PgBenchValue = type { i32, %union.anon }
%union.anon = type { i64 }
%struct.PgBenchExprLink = type { ptr, ptr }

; Function Attrs: nounwind uwtable
define internal zeroext i1 @valueTruth(ptr noundef %0) #0 {
  %2 = alloca i1, align 1
  %3 = alloca ptr, align 8
  store ptr %0, ptr %3, align 8
  %4 = load ptr, ptr %3, align 8
  %5 = getelementptr inbounds nuw %struct.PgBenchValue, ptr %4, i32 0, i32 0
  %6 = load i32, ptr %5, align 8
  switch i32 %6, label %23 [
    i32 1, label %7
    i32 4, label %8
    i32 2, label %13
    i32 3, label %18
  ]

7:                                                ; preds = %1
  store i1 false, ptr %2, align 1
  br label %24

8:                                                ; preds = %1
  %9 = load ptr, ptr %3, align 8
  %10 = getelementptr inbounds nuw %struct.PgBenchValue, ptr %9, i32 0, i32 1
  %11 = load i8, ptr %10, align 8, !range !8, !noundef !9
  %12 = trunc i8 %11 to i1
  store i1 %12, ptr %2, align 1
  br label %24

13:                                               ; preds = %1
  %14 = load ptr, ptr %3, align 8
  %15 = getelementptr inbounds nuw %struct.PgBenchValue, ptr %14, i32 0, i32 1
  %16 = load i64, ptr %15, align 8
  %17 = icmp ne i64 %16, 0
  store i1 %17, ptr %2, align 1
  br label %24

18:                                               ; preds = %1
  %19 = load ptr, ptr %3, align 8
  %20 = getelementptr inbounds nuw %struct.PgBenchValue, ptr %19, i32 0, i32 1
  %21 = load double, ptr %20, align 8
  %22 = fcmp une double %21, 0.000000e+00
  store i1 %22, ptr %2, align 1
  br label %24

23:                                               ; preds = %1
  store i1 false, ptr %2, align 1
  br label %24

24:                                               ; preds = %23, %18, %13, %8, %7
  %25 = load i1, ptr %2, align 1
  ret i1 %25
}

; Function Attrs: nounwind uwtable
define internal void @setBoolValue(ptr noundef %0, i1 noundef zeroext %1) #0 {
  %3 = alloca ptr, align 8
  %4 = alloca i8, align 1
  store ptr %0, ptr %3, align 8
  %5 = zext i1 %1 to i8
  store i8 %5, ptr %4, align 1
  %6 = load ptr, ptr %3, align 8
  %7 = getelementptr inbounds nuw %struct.PgBenchValue, ptr %6, i32 0, i32 0
  store i32 4, ptr %7, align 8
  %8 = load i8, ptr %4, align 1, !range !8, !noundef !9
  %9 = trunc i8 %8 to i1
  %10 = load ptr, ptr %3, align 8
  %11 = getelementptr inbounds nuw %struct.PgBenchValue, ptr %10, i32 0, i32 1
  %12 = zext i1 %9 to i8
  store i8 %12, ptr %11, align 8
  ret void
}

; Function Attrs: nounwind uwtable
define internal void @setNullValue(ptr noundef %0) #0 {
  %2 = alloca ptr, align 8
  store ptr %0, ptr %2, align 8
  %3 = load ptr, ptr %2, align 8
  %4 = getelementptr inbounds nuw %struct.PgBenchValue, ptr %3, i32 0, i32 0
  store i32 1, ptr %4, align 8
  %5 = load ptr, ptr %2, align 8
  %6 = getelementptr inbounds nuw %struct.PgBenchValue, ptr %5, i32 0, i32 1
  store i64 0, ptr %6, align 8
  ret void
}

; Function Attrs: nounwind uwtable
define internal zeroext i1 @evalLazyFunc(ptr noundef %0, i32 noundef %1, ptr noundef %2, ptr noundef %3) #0 {
  %5 = alloca i1, align 1
  %6 = alloca ptr, align 8
  %7 = alloca i32, align 4
  %8 = alloca ptr, align 8
  %9 = alloca ptr, align 8
  %10 = alloca %struct.PgBenchValue, align 8
  %11 = alloca %struct.PgBenchValue, align 8
  %12 = alloca i8, align 1
  %13 = alloca i8, align 1
  %14 = alloca i32, align 4
  store ptr %0, ptr %6, align 8
  store i32 %1, ptr %7, align 4
  store ptr %2, ptr %8, align 8
  store ptr %3, ptr %9, align 8
  call void @llvm.lifetime.start.p0(i64 16, ptr %10) #14
  call void @llvm.lifetime.start.p0(i64 16, ptr %11) #14
  call void @llvm.lifetime.start.p0(i64 1, ptr %12) #14
  call void @llvm.lifetime.start.p0(i64 1, ptr %13) #14
  %15 = load ptr, ptr %6, align 8
  %16 = load ptr, ptr %8, align 8
  %17 = getelementptr inbounds nuw %struct.PgBenchExprLink, ptr %16, i32 0, i32 0
  %18 = load ptr, ptr %17, align 8
  %19 = call zeroext i1 @evaluateExpr(ptr noundef %15, ptr noundef %18, ptr noundef %10)
  br i1 %19, label %21, label %20

20:                                               ; preds = %4
  store i1 false, ptr %5, align 1
  store i32 1, ptr %14, align 4
  br label %125

21:                                               ; preds = %4
  %22 = load ptr, ptr %8, align 8
  %23 = getelementptr inbounds nuw %struct.PgBenchExprLink, ptr %22, i32 0, i32 1
  %24 = load ptr, ptr %23, align 8
  store ptr %24, ptr %8, align 8
  %25 = load i32, ptr %7, align 4
  switch i32 %25, label %123 [
    i32 20, label %26
    i32 21, label %60
    i32 33, label %94
  ]

26:                                               ; preds = %21
  %27 = getelementptr inbounds nuw %struct.PgBenchValue, ptr %10, i32 0, i32 0
  %28 = load i32, ptr %27, align 8
  %29 = icmp eq i32 %28, 1
  br i1 %29, label %30, label %32

30:                                               ; preds = %26
  %31 = load ptr, ptr %9, align 8
  call void @setNullValue(ptr noundef %31)
  store i1 true, ptr %5, align 1
  store i32 1, ptr %14, align 4
  br label %125

32:                                               ; preds = %26
  %33 = call zeroext i1 @coerceToBool(ptr noundef %10, ptr noundef %12)
  br i1 %33, label %35, label %34

34:                                               ; preds = %32
  store i1 false, ptr %5, align 1
  store i32 1, ptr %14, align 4
  br label %125

35:                                               ; preds = %32
  %36 = load i8, ptr %12, align 1, !range !8, !noundef !9
  %37 = trunc i8 %36 to i1
  br i1 %37, label %40, label %38

38:                                               ; preds = %35
  %39 = load ptr, ptr %9, align 8
  call void @setBoolValue(ptr noundef %39, i1 noundef zeroext false)
  store i1 true, ptr %5, align 1
  store i32 1, ptr %14, align 4
  br label %125

40:                                               ; preds = %35
  %41 = load ptr, ptr %6, align 8
  %42 = load ptr, ptr %8, align 8
  %43 = getelementptr inbounds nuw %struct.PgBenchExprLink, ptr %42, i32 0, i32 0
  %44 = load ptr, ptr %43, align 8
  %45 = call zeroext i1 @evaluateExpr(ptr noundef %41, ptr noundef %44, ptr noundef %11)
  br i1 %45, label %47, label %46

46:                                               ; preds = %40
  store i1 false, ptr %5, align 1
  store i32 1, ptr %14, align 4
  br label %125

47:                                               ; preds = %40
  %48 = getelementptr inbounds nuw %struct.PgBenchValue, ptr %11, i32 0, i32 0
  %49 = load i32, ptr %48, align 8
  %50 = icmp eq i32 %49, 1
  br i1 %50, label %51, label %53

51:                                               ; preds = %47
  %52 = load ptr, ptr %9, align 8
  call void @setNullValue(ptr noundef %52)
  store i1 true, ptr %5, align 1
  store i32 1, ptr %14, align 4
  br label %125

53:                                               ; preds = %47
  %54 = call zeroext i1 @coerceToBool(ptr noundef %11, ptr noundef %13)
  br i1 %54, label %56, label %55

55:                                               ; preds = %53
  store i1 false, ptr %5, align 1
  store i32 1, ptr %14, align 4
  br label %125

56:                                               ; preds = %53
  %57 = load ptr, ptr %9, align 8
  %58 = load i8, ptr %13, align 1, !range !8, !noundef !9
  %59 = trunc i8 %58 to i1
  call void @setBoolValue(ptr noundef %57, i1 noundef zeroext %59)
  store i1 true, ptr %5, align 1
  store i32 1, ptr %14, align 4
  br label %125

60:                                               ; preds = %21
  %61 = getelementptr inbounds nuw %struct.PgBenchValue, ptr %10, i32 0, i32 0
  %62 = load i32, ptr %61, align 8
  %63 = icmp eq i32 %62, 1
  br i1 %63, label %64, label %66

64:                                               ; preds = %60
  %65 = load ptr, ptr %9, align 8
  call void @setNullValue(ptr noundef %65)
  store i1 true, ptr %5, align 1
  store i32 1, ptr %14, align 4
  br label %125

66:                                               ; preds = %60
  %67 = call zeroext i1 @coerceToBool(ptr noundef %10, ptr noundef %12)
  br i1 %67, label %69, label %68

68:                                               ; preds = %66
  store i1 false, ptr %5, align 1
  store i32 1, ptr %14, align 4
  br label %125

69:                                               ; preds = %66
  %70 = load i8, ptr %12, align 1, !range !8, !noundef !9
  %71 = trunc i8 %70 to i1
  br i1 %71, label %72, label %74

72:                                               ; preds = %69
  %73 = load ptr, ptr %9, align 8
  call void @setBoolValue(ptr noundef %73, i1 noundef zeroext true)
  store i1 true, ptr %5, align 1
  store i32 1, ptr %14, align 4
  br label %125

74:                                               ; preds = %69
  %75 = load ptr, ptr %6, align 8
  %76 = load ptr, ptr %8, align 8
  %77 = getelementptr inbounds nuw %struct.PgBenchExprLink, ptr %76, i32 0, i32 0
  %78 = load ptr, ptr %77, align 8
  %79 = call zeroext i1 @evaluateExpr(ptr noundef %75, ptr noundef %78, ptr noundef %11)
  br i1 %79, label %81, label %80

80:                                               ; preds = %74
  store i1 false, ptr %5, align 1
  store i32 1, ptr %14, align 4
  br label %125

81:                                               ; preds = %74
  %82 = getelementptr inbounds nuw %struct.PgBenchValue, ptr %11, i32 0, i32 0
  %83 = load i32, ptr %82, align 8
  %84 = icmp eq i32 %83, 1
  br i1 %84, label %85, label %87

85:                                               ; preds = %81
  %86 = load ptr, ptr %9, align 8
  call void @setNullValue(ptr noundef %86)
  store i1 true, ptr %5, align 1
  store i32 1, ptr %14, align 4
  br label %125

87:                                               ; preds = %81
  %88 = call zeroext i1 @coerceToBool(ptr noundef %11, ptr noundef %13)
  br i1 %88, label %90, label %89

89:                                               ; preds = %87
  store i1 false, ptr %5, align 1
  store i32 1, ptr %14, align 4
  br label %125

90:                                               ; preds = %87
  %91 = load ptr, ptr %9, align 8
  %92 = load i8, ptr %13, align 1, !range !8, !noundef !9
  %93 = trunc i8 %92 to i1
  call void @setBoolValue(ptr noundef %91, i1 noundef zeroext %93)
  store i1 true, ptr %5, align 1
  store i32 1, ptr %14, align 4
  br label %125

94:                                               ; preds = %21
  %95 = call zeroext i1 @valueTruth(ptr noundef %10)
  br i1 %95, label %96, label %103

96:                                               ; preds = %94
  %97 = load ptr, ptr %6, align 8
  %98 = load ptr, ptr %8, align 8
  %99 = getelementptr inbounds nuw %struct.PgBenchExprLink, ptr %98, i32 0, i32 0
  %100 = load ptr, ptr %99, align 8
  %101 = load ptr, ptr %9, align 8
  %102 = call zeroext i1 @evaluateExpr(ptr noundef %97, ptr noundef %100, ptr noundef %101)
  store i1 %102, ptr %5, align 1
  store i32 1, ptr %14, align 4
  br label %125

103:                                              ; preds = %94
  %104 = load ptr, ptr %8, align 8
  %105 = getelementptr inbounds nuw %struct.PgBenchExprLink, ptr %104, i32 0, i32 1
  %106 = load ptr, ptr %105, align 8
  store ptr %106, ptr %8, align 8
  %107 = load ptr, ptr %8, align 8
  %108 = getelementptr inbounds nuw %struct.PgBenchExprLink, ptr %107, i32 0, i32 1
  %109 = load ptr, ptr %108, align 8
  %110 = icmp eq ptr %109, null
  br i1 %110, label %111, label %118

111:                                              ; preds = %103
  %112 = load ptr, ptr %6, align 8
  %113 = load ptr, ptr %8, align 8
  %114 = getelementptr inbounds nuw %struct.PgBenchExprLink, ptr %113, i32 0, i32 0
  %115 = load ptr, ptr %114, align 8
  %116 = load ptr, ptr %9, align 8
  %117 = call zeroext i1 @evaluateExpr(ptr noundef %112, ptr noundef %115, ptr noundef %116)
  store i1 %117, ptr %5, align 1
  store i32 1, ptr %14, align 4
  br label %125

118:                                              ; preds = %103
  %119 = load ptr, ptr %6, align 8
  %120 = load ptr, ptr %8, align 8
  %121 = load ptr, ptr %9, align 8
  %122 = call zeroext i1 @evalLazyFunc(ptr noundef %119, i32 noundef 33, ptr noundef %120, ptr noundef %121)
  store i1 %122, ptr %5, align 1
  store i32 1, ptr %14, align 4
  br label %125

123:                                              ; preds = %21
  br label %124

124:                                              ; preds = %123
  store i1 false, ptr %5, align 1
  store i32 1, ptr %14, align 4
  br label %125

125:                                              ; preds = %124, %118, %111, %96, %90, %89, %85, %80, %72, %68, %64, %56, %55, %51, %46, %38, %34, %30, %20
  call void @llvm.lifetime.end.p0(i64 1, ptr %13) #14
  call void @llvm.lifetime.end.p0(i64 1, ptr %12) #14
  call void @llvm.lifetime.end.p0(i64 16, ptr %11) #14
  call void @llvm.lifetime.end.p0(i64 16, ptr %10) #14
  %126 = load i1, ptr %5, align 1
  ret i1 %126
}