; Function Attrs: nounwind uwtable
define internal fastcc zeroext i1 @evalLazyFunc(ptr noundef %0, i32 noundef %1, ptr noundef readonly captures(none) %2, ptr noundef nonnull %3) unnamed_addr #0 {
  %5 = alloca %struct.PgBenchValue, align 8
  %6 = alloca %struct.PgBenchValue, align 8
  %7 = alloca i8, align 1
  call void @llvm.lifetime.start.p0(i64 16, ptr nonnull %5) #25
  call void @llvm.lifetime.start.p0(i64 16, ptr nonnull %6) #25
  call void @llvm.lifetime.start.p0(i64 1, ptr nonnull %7) #25
  %8 = load ptr, ptr %2, align 8
  %9 = call fastcc zeroext i1 @evaluateExpr(ptr noundef %0, ptr noundef %8, ptr noundef %5)
  br i1 %9, label %10, label %90

10:                                               ; preds = %4
  %11 = getelementptr inbounds nuw i8, ptr %2, i64 8
  %12 = load ptr, ptr %11, align 8
  switch i32 %1, label %90 [
    i32 20, label %13
    i32 21, label %39
    i32 33, label %65
  ]

13:                                               ; preds = %10
  %14 = load i32, ptr %5, align 8
  switch i32 %14, label %19 [
    i32 1, label %15
    i32 4, label %20
    i32 0, label %coerceToBool.exit
    i32 3, label %18
    i32 2, label %17
  ]

15:                                               ; preds = %13
  store i32 1, ptr %3, align 8
  %16 = getelementptr inbounds nuw i8, ptr %3, i64 8
  store i64 0, ptr %16, align 8
  br label %90

17:                                               ; preds = %13
  br label %coerceToBool.exit

18:                                               ; preds = %13
  br label %coerceToBool.exit

19:                                               ; preds = %13
  br label %coerceToBool.exit

coerceToBool.exit:                                ; preds = %13, %17, %18, %19
  %.0.i.i = phi ptr [ @.str.402, %17 ], [ @.str.403, %18 ], [ null, %19 ], [ @.str.234, %13 ]
  call void (i32, i32, ptr, ...) @pg_log_generic(i32 noundef 4, i32 noundef 0, ptr noundef nonnull @.str.401, ptr noundef %.0.i.i) #25
  br label %90

20:                                               ; preds = %13
  %21 = getelementptr inbounds nuw i8, ptr %5, i64 8
  %.val27 = load i8, ptr %21, align 8
  %22 = trunc nuw i8 %.val27 to i1
  br i1 %22, label %25, label %23

23:                                               ; preds = %20
  store i32 4, ptr %3, align 8
  %24 = getelementptr inbounds nuw i8, ptr %3, i64 8
  store i8 0, ptr %24, align 8
  br label %90

25:                                               ; preds = %20
  %26 = load ptr, ptr %12, align 8
  %27 = call fastcc zeroext i1 @evaluateExpr(ptr noundef %0, ptr noundef %26, ptr noundef %6)
  br i1 %27, label %28, label %90

28:                                               ; preds = %25
  %29 = load i32, ptr %6, align 8
  %30 = icmp eq i32 %29, 1
  br i1 %30, label %31, label %33

31:                                               ; preds = %28
  store i32 1, ptr %3, align 8
  %32 = getelementptr inbounds nuw i8, ptr %3, i64 8
  store i64 0, ptr %32, align 8
  br label %90

33:                                               ; preds = %28
  %34 = getelementptr inbounds nuw i8, ptr %6, i64 8
  %.val29 = load i8, ptr %34, align 8
  %35 = call fastcc zeroext i1 @coerceToBool(i32 %29, i8 %.val29, ptr noundef %7)
  br i1 %35, label %36, label %90

36:                                               ; preds = %33
  %37 = load i8, ptr %7, align 1, !range !20, !noundef !21
  store i32 4, ptr %3, align 8
  %38 = getelementptr inbounds nuw i8, ptr %3, i64 8
  store i8 %37, ptr %38, align 8
  br label %90

39:                                               ; preds = %10
  %40 = load i32, ptr %5, align 8
  switch i32 %40, label %45 [
    i32 1, label %41
    i32 4, label %46
    i32 0, label %coerceToBool.exit37
    i32 3, label %44
    i32 2, label %43
  ]

41:                                               ; preds = %39
  store i32 1, ptr %3, align 8
  %42 = getelementptr inbounds nuw i8, ptr %3, i64 8
  store i64 0, ptr %42, align 8
  br label %90

43:                                               ; preds = %39
  br label %coerceToBool.exit37

44:                                               ; preds = %39
  br label %coerceToBool.exit37

45:                                               ; preds = %39
  br label %coerceToBool.exit37

coerceToBool.exit37:                              ; preds = %39, %43, %44, %45
  %.0.i.i35 = phi ptr [ @.str.402, %43 ], [ @.str.403, %44 ], [ null, %45 ], [ @.str.234, %39 ]
  call void (i32, i32, ptr, ...) @pg_log_generic(i32 noundef 4, i32 noundef 0, ptr noundef nonnull @.str.401, ptr noundef %.0.i.i35) #25
  br label %90

46:                                               ; preds = %39
  %47 = getelementptr inbounds nuw i8, ptr %5, i64 8
  %.val31 = load i8, ptr %47, align 8
  %48 = trunc nuw i8 %.val31 to i1
  br i1 %48, label %49, label %51

49:                                               ; preds = %46
  store i32 4, ptr %3, align 8
  %50 = getelementptr inbounds nuw i8, ptr %3, i64 8
  store i8 1, ptr %50, align 8
  br label %90

51:                                               ; preds = %46
  %52 = load ptr, ptr %12, align 8
  %53 = call fastcc zeroext i1 @evaluateExpr(ptr noundef %0, ptr noundef %52, ptr noundef %6)
  br i1 %53, label %54, label %90

54:                                               ; preds = %51
  %55 = load i32, ptr %6, align 8
  %56 = icmp eq i32 %55, 1
  br i1 %56, label %57, label %59

57:                                               ; preds = %54
  store i32 1, ptr %3, align 8
  %58 = getelementptr inbounds nuw i8, ptr %3, i64 8
  store i64 0, ptr %58, align 8
  br label %90

59:                                               ; preds = %54
  %60 = getelementptr inbounds nuw i8, ptr %6, i64 8
  %.val33 = load i8, ptr %60, align 8
  %61 = call fastcc zeroext i1 @coerceToBool(i32 %55, i8 %.val33, ptr noundef %7)
  br i1 %61, label %62, label %90

62:                                               ; preds = %59
  %63 = load i8, ptr %7, align 1, !range !20, !noundef !21
  store i32 4, ptr %3, align 8
  %64 = getelementptr inbounds nuw i8, ptr %3, i64 8
  store i8 %63, ptr %64, align 8
  br label %90

65:                                               ; preds = %10
  %66 = load i32, ptr %5, align 8
  switch i32 %66, label %valueTruth.exit.thread [
    i32 3, label %70
    i32 4, label %valueTruth.exit
    i32 2, label %67
  ]

67:                                               ; preds = %65
  %68 = getelementptr inbounds nuw i8, ptr %5, i64 8
  %69 = load i64, ptr %68, align 8
  %.not = icmp eq i64 %69, 0
  br i1 %.not, label %valueTruth.exit.thread, label %77

70:                                               ; preds = %65
  %71 = getelementptr inbounds nuw i8, ptr %5, i64 8
  %72 = load double, ptr %71, align 8
  %73 = fcmp une double %72, 0.000000e+00
  br i1 %73, label %77, label %valueTruth.exit.thread

valueTruth.exit:                                  ; preds = %65
  %74 = getelementptr inbounds nuw i8, ptr %5, i64 8
  %75 = load i8, ptr %74, align 8, !range !20, !noundef !21
  %76 = trunc nuw i8 %75 to i1
  br i1 %76, label %77, label %valueTruth.exit.thread

77:                                               ; preds = %67, %70, %valueTruth.exit
  %78 = load ptr, ptr %12, align 8
  %79 = call fastcc zeroext i1 @evaluateExpr(ptr noundef %0, ptr noundef %78, ptr noundef %3)
  br label %90

valueTruth.exit.thread:                           ; preds = %65, %67, %70, %valueTruth.exit
  %80 = getelementptr inbounds nuw i8, ptr %12, i64 8
  %81 = load ptr, ptr %80, align 8
  %82 = getelementptr inbounds nuw i8, ptr %81, i64 8
  %83 = load ptr, ptr %82, align 8
  %84 = icmp eq ptr %83, null
  br i1 %84, label %85, label %88

85:                                               ; preds = %valueTruth.exit.thread
  %86 = load ptr, ptr %81, align 8
  %87 = call fastcc zeroext i1 @evaluateExpr(ptr noundef %0, ptr noundef %86, ptr noundef %3)
  br label %90

88:                                               ; preds = %valueTruth.exit.thread
  %89 = call fastcc zeroext i1 @evalLazyFunc(ptr noundef %0, i32 noundef 33, ptr noundef nonnull %81, ptr noundef %3)
  br label %90

90:                                               ; preds = %coerceToBool.exit37, %coerceToBool.exit, %10, %59, %51, %33, %25, %4, %88, %85, %77, %62, %57, %49, %41, %36, %31, %23, %15
  %.0 = phi i1 [ %79, %77 ], [ %87, %85 ], [ %89, %88 ], [ true, %41 ], [ true, %49 ], [ true, %57 ], [ true, %62 ], [ true, %15 ], [ true, %31 ], [ true, %36 ], [ true, %23 ], [ false, %4 ], [ false, %coerceToBool.exit ], [ false, %25 ], [ false, %33 ], [ false, %coerceToBool.exit37 ], [ false, %51 ], [ false, %59 ], [ false, %10 ]
  call void @llvm.lifetime.end.p0(i64 1, ptr nonnull %7) #25
  call void @llvm.lifetime.end.p0(i64 16, ptr nonnull %6) #25
  call void @llvm.lifetime.end.p0(i64 16, ptr nonnull %5) #25
  ret i1 %.0
}